Certificate:
    Data:
        Version: 3 (0x2)
        Serial Number:
            da:a5:cb:bb:e7:6d:1b:f7
        Signature Algorithm: sha1WithRSAEncryption
        Issuer: C=JP, ST=Osaka, O=HiganWorks LLC., CN=HiganWorks PrivateCA 001
        Validity
            Not Before: May  1 02:21:48 2012 GMT
            Not After : Apr 29 02:21:48 2022 GMT
        Subject: C=JP, ST=Osaka, O=HiganWorks LLC., CN=HiganWorks PrivateCA 001
        Subject Public Key Info:
            Public Key Algorithm: rsaEncryption
            RSA Public Key: (2048 bit)
                Modulus (2048 bit):
                    00:bc:84:c6:6d:73:20:6e:54:85:99:62:f7:71:10:
                    b5:e2:50:bb:49:fe:49:70:3a:df:4a:75:67:91:5a:
                    96:26:9c:bd:ae:bb:05:74:9e:47:8b:3c:78:fc:b4:
                    a9:99:b4:7c:c7:4a:ae:64:a3:2c:66:0b:6a:7c:9f:
                    c9:4e:f7:d5:ed:bc:ce:36:c0:ae:1b:1e:55:ac:b1:
                    b4:59:79:d3:5b:2d:d9:4d:a6:0a:75:bf:5d:e5:6c:
                    6a:37:e8:87:83:cd:79:59:12:e9:36:46:7e:f4:8a:
                    d6:de:2b:49:0b:3d:36:89:f1:f0:4e:58:b6:14:70:
                    9b:b7:bc:ef:59:a7:20:72:07:91:d5:68:1a:ff:74:
                    ac:8e:c6:f6:77:9a:c6:22:ba:b0:d3:15:31:db:4a:
                    1f:81:c4:03:42:ad:d1:a6:43:36:2f:9a:78:88:4c:
                    24:03:ef:24:8b:aa:87:cc:b7:d4:17:c8:51:0c:c5:
                    40:4e:2c:01:f5:62:78:1c:7a:c1:c5:53:10:95:4e:
                    a2:a4:f7:ce:a1:2b:3a:95:fb:80:70:14:af:8e:29:
                    af:13:a5:6a:f6:8c:15:55:9b:a2:e2:e1:db:aa:c2:
                    a6:96:5a:17:21:88:19:49:81:8d:5f:17:ae:2f:d4:
                    e9:6d:1c:db:38:e0:d9:d0:f0:1a:fe:f0:b8:1d:d5:
                    8f:a9
                Exponent: 65537 (0x10001)
        X509v3 extensions:
            X509v3 Subject Key Identifier: 
                0B:A9:01:A0:E1:7B:A1:D3:9A:A1:D3:C3:45:BE:DA:9B:3B:5E:59:47
            X509v3 Authority Key Identifier: 
                keyid:0B:A9:01:A0:E1:7B:A1:D3:9A:A1:D3:C3:45:BE:DA:9B:3B:5E:59:47
                DirName:/C=JP/ST=Osaka/O=HiganWorks LLC./CN=HiganWorks PrivateCA 001
                serial:DA:A5:CB:BB:E7:6D:1B:F7

            X509v3 Basic Constraints: 
                CA:TRUE
    Signature Algorithm: sha1WithRSAEncryption
        9d:52:d6:af:18:6d:37:e7:13:fe:86:3f:94:9c:91:fe:20:3c:
        df:aa:59:54:fd:c4:5e:8e:6d:e7:e9:53:1a:c5:3f:ff:e9:b4:
        24:ae:fe:05:9f:06:24:1f:37:05:60:51:aa:2f:ab:c5:f3:5f:
        4f:93:6d:8b:5e:96:9c:2e:db:89:ff:bc:e1:bc:3c:6e:23:df:
        56:7e:dc:47:a1:8f:e4:bd:5b:87:fa:dd:09:a7:b4:89:c1:33:
        07:71:17:45:3e:20:e7:76:6b:cc:0b:d0:d4:ae:b5:bb:b9:73:
        97:88:65:0b:e2:3d:a7:30:72:65:7d:7b:48:e8:74:7d:e6:e1:
        05:2f:0c:3b:27:4d:df:a9:c5:9e:9d:7a:4e:e2:bb:0d:e3:db:
        99:5c:73:b5:70:d4:fd:27:45:ab:d7:36:56:d8:50:48:06:32:
        5e:37:2c:44:7c:56:6e:6f:2a:5c:26:98:19:cd:23:ee:1e:3f:
        6c:1c:9f:63:d6:a4:29:6f:79:5c:ce:db:ce:d2:24:34:1d:35:
        04:42:5d:e6:9e:93:09:85:83:1f:4e:b0:3b:31:58:fc:97:2b:
        3d:1c:18:65:99:35:31:24:c2:1b:cb:b0:0b:61:1d:0d:d7:a0:
        54:1e:c9:ce:20:46:cd:e9:41:57:ea:fa:00:e0:90:12:36:7f:
        8b:b3:10:98
-----BEGIN CERTIFICATE-----
MIID9zCCAt+gAwIBAgIJANqly7vnbRv3MA0GCSqGSIb3DQEBBQUAMFoxCzAJBgNV
BAYTAkpQMQ4wDAYDVQQIEwVPc2FrYTEYMBYGA1UEChMPSGlnYW5Xb3JrcyBMTEMu
MSEwHwYDVQQDExhIaWdhbldvcmtzIFByaXZhdGVDQSAwMDEwHhcNMTIwNTAxMDIy
MTQ4WhcNMjIwNDI5MDIyMTQ4WjBaMQswCQYDVQQGEwJKUDEOMAwGA1UECBMFT3Nh
a2ExGDAWBgNVBAoTD0hpZ2FuV29ya3MgTExDLjEhMB8GA1UEAxMYSGlnYW5Xb3Jr
cyBQcml2YXRlQ0EgMDAxMIIBIjANBgkqhkiG9w0BAQEFAAOCAQ8AMIIBCgKCAQEA
vITGbXMgblSFmWL3cRC14lC7Sf5JcDrfSnVnkVqWJpy9rrsFdJ5Hizx4/LSpmbR8
x0quZKMsZgtqfJ/JTvfV7bzONsCuGx5VrLG0WXnTWy3ZTaYKdb9d5WxqN+iHg815
WRLpNkZ+9IrW3itJCz02ifHwTli2FHCbt7zvWacgcgeR1Wga/3Ssjsb2d5rGIrqw
0xUx20ofgcQDQq3RpkM2L5p4iEwkA+8ki6qHzLfUF8hRDMVATiwB9WJ4HHrBxVMQ
lU6ipPfOoSs6lfuAcBSvjimvE6Vq9owVVZui4uHbqsKmlloXIYgZSYGNXxeuL9Tp
bRzbOODZ0PAa/vC4HdWPqQIDAQABo4G/MIG8MB0GA1UdDgQWBBQLqQGg4Xuh05qh
08NFvtqbO15ZRzCBjAYDVR0jBIGEMIGBgBQLqQGg4Xuh05qh08NFvtqbO15ZR6Fe
pFwwWjELMAkGA1UEBhMCSlAxDjAMBgNVBAgTBU9zYWthMRgwFgYDVQQKEw9IaWdh
bldvcmtzIExMQy4xITAfBgNVBAMTGEhpZ2FuV29ya3MgUHJpdmF0ZUNBIDAwMYIJ
ANqly7vnbRv3MAwGA1UdEwQFMAMBAf8wDQYJKoZIhvcNAQEFBQADggEBAJ1S1q8Y
bTfnE/6GP5Sckf4gPN+qWVT9xF6ObefpUxrFP//ptCSu/gWfBiQfNwVgUaovq8Xz
X0+TbYtelpwu24n/vOG8PG4j31Z+3Eehj+S9W4f63QmntInBMwdxF0U+IOd2a8wL
0NSutbu5c5eIZQviPacwcmV9e0jodH3m4QUvDDsnTd+pxZ6dek7iuw3j25lcc7Vw
1P0nRavXNlbYUEgGMl43LER8Vm5vKlwmmBnNI+4eP2wcn2PWpClveVzO287SJDQd
NQRCXeaekwmFgx9OsDsxWPyXKz0cGGWZNTEkwhvLsAthHQ3XoFQeyc4gRs3pQVfq
+gDgkBI2f4uzEJg=
-----END CERTIFICATE-----
